target datalayout = "e-m:e-p270:32:32-p271:32:32-p272:64:64-i64:64-i128:128-f80:128-n8:16:32:64-S128"
target triple = "x86_64-pc-linux-gnu"

%struct.MOVMuxCencContext = type { ptr, ptr, i64, i64, i32, i32, i16, i64, ptr, i64, ptr, i32, i32, ptr, %struct.CodedBitstreamFragment }
%struct.CodedBitstreamFragment = type { ptr, i64, i64, ptr, i32, i32, ptr }
%struct.CodedBitstreamContext = type { ptr, ptr, ptr, ptr, i32, i32, i32, ptr, ptr, ptr, ptr, i64 }

@decompose_unit_types = internal constant [5 x i32] [i32 2, i32 1, i32 3, i32 4, i32 6], align 16

; Function Attrs: nounwind uwtable
define i32 @ff_mov_cenc_init(ptr noundef %0, ptr noundef %1, i32 noundef %2, i32 noundef %3, i32 noundef %4) #0 {
  %6 = alloca i32, align 4
  %7 = alloca ptr, align 8
  %8 = alloca ptr, align 8
  %9 = alloca i32, align 4
  %10 = alloca i32, align 4
  %11 = alloca i32, align 4
  %12 = alloca i32, align 4
  %13 = alloca i32, align 4
  store ptr %0, ptr %7, align 8, !tbaa !4
  store ptr %1, ptr %8, align 8, !tbaa !10
  store i32 %2, ptr %9, align 4, !tbaa !12
  store i32 %3, ptr %10, align 4, !tbaa !12
  store i32 %4, ptr %11, align 4, !tbaa !12
  call void @llvm.lifetime.start.p0(i64 4, ptr %12) #7
  %14 = call ptr @av_aes_ctr_alloc()
  %15 = load ptr, ptr %7, align 8, !tbaa !4
  %16 = getelementptr inbounds nuw %struct.MOVMuxCencContext, ptr %15, i32 0, i32 0
  store ptr %14, ptr %16, align 8, !tbaa !14
  %17 = load ptr, ptr %7, align 8, !tbaa !4
  %18 = getelementptr inbounds nuw %struct.MOVMuxCencContext, ptr %17, i32 0, i32 0
  %19 = load ptr, ptr %18, align 8, !tbaa !14
  %20 = icmp ne ptr %19, null
  br i1 %20, label %22, label %21

21:                                               ; preds = %5
  store i32 -12, ptr %6, align 4
  store i32 1, ptr %13, align 4
  br label %64

22:                                               ; preds = %5
  %23 = load ptr, ptr %7, align 8, !tbaa !4
  %24 = getelementptr inbounds nuw %struct.MOVMuxCencContext, ptr %23, i32 0, i32 0
  %25 = load ptr, ptr %24, align 8, !tbaa !14
  %26 = load ptr, ptr %8, align 8, !tbaa !10
  %27 = call i32 @av_aes_ctr_init(ptr noundef %25, ptr noundef %26)
  store i32 %27, ptr %12, align 4, !tbaa !12
  %28 = load i32, ptr %12, align 4, !tbaa !12
  %29 = icmp ne i32 %28, 0
  br i1 %29, label %30, label %32

30:                                               ; preds = %22
  %31 = load i32, ptr %12, align 4, !tbaa !12
  store i32 %31, ptr %6, align 4
  store i32 1, ptr %13, align 4
  br label %64

32:                                               ; preds = %22
  %33 = load i32, ptr %11, align 4, !tbaa !12
  %34 = icmp ne i32 %33, 0
  br i1 %34, label %39, label %35

35:                                               ; preds = %32
  %36 = load ptr, ptr %7, align 8, !tbaa !4
  %37 = getelementptr inbounds nuw %struct.MOVMuxCencContext, ptr %36, i32 0, i32 0
  %38 = load ptr, ptr %37, align 8, !tbaa !14
  call void @av_aes_ctr_set_random_iv(ptr noundef %38)
  br label %39

39:                                               ; preds = %35, %32
  %40 = load i32, ptr %9, align 4, !tbaa !12
  %41 = load ptr, ptr %7, align 8, !tbaa !4
  %42 = getelementptr inbounds nuw %struct.MOVMuxCencContext, ptr %41, i32 0, i32 5
  store i32 %40, ptr %42, align 4, !tbaa !24
  %43 = load i32, ptr %10, align 4, !tbaa !12
  %44 = icmp eq i32 %43, 225
  br i1 %44, label %45, label %63

45:                                               ; preds = %39
  %46 = load ptr, ptr %7, align 8, !tbaa !4
  %47 = getelementptr inbounds nuw %struct.MOVMuxCencContext, ptr %46, i32 0, i32 13
  %48 = load i32, ptr %10, align 4, !tbaa !12
  %49 = call i32 @ff_lavf_cbs_init(ptr noundef %47, i32 noundef %48, ptr noundef null)
  store i32 %49, ptr %12, align 4, !tbaa !12
  %50 = load i32, ptr %12, align 4, !tbaa !12
  %51 = icmp slt i32 %50, 0
  br i1 %51, label %52, label %54

52:                                               ; preds = %45
  %53 = load i32, ptr %12, align 4, !tbaa !12
  store i32 %53, ptr %6, align 4
  store i32 1, ptr %13, align 4
  br label %64

54:                                               ; preds = %45
  %55 = load ptr, ptr %7, align 8, !tbaa !4
  %56 = getelementptr inbounds nuw %struct.MOVMuxCencContext, ptr %55, i32 0, i32 13
  %57 = load ptr, ptr %56, align 8, !tbaa !46
  %58 = getelementptr inbounds nuw %struct.CodedBitstreamContext, ptr %57, i32 0, i32 3
  store ptr @decompose_unit_types, ptr %58, align 8, !tbaa !114
  %59 = load ptr, ptr %7, align 8, !tbaa !4
  %60 = getelementptr inbounds nuw %struct.MOVMuxCencContext, ptr %59, i32 0, i32 13
  %61 = load ptr, ptr %60, align 8, !tbaa !46
  %62 = getelementptr inbounds nuw %struct.CodedBitstreamContext, ptr %61, i32 0, i32 4
  store i32 5, ptr %62, align 8, !tbaa !115
  br label %63

63:                                               ; preds = %54, %39
  store i32 0, ptr %6, align 4
  store i32 1, ptr %13, align 4
  br label %64

64:                                               ; preds = %63, %52, %30, %21
  call void @llvm.lifetime.end.p0(i64 4, ptr %12) #7
  %65 = load i32, ptr %6, align 4
  ret i32 %65
}