; Function Attrs: nounwind uwtable
define i32 @ff_mov_cenc_init(ptr noundef initializes((0, 8)) %0, ptr noundef %1, i32 noundef %2, i32 noundef %3, i32 noundef %4) local_unnamed_addr #0 {
  %6 = tail call ptr @av_aes_ctr_alloc() #5
  store ptr %6, ptr %0, align 8, !tbaa !24
  %.not = icmp eq ptr %6, null
  br i1 %.not, label %23, label %7

7:                                                ; preds = %5
  %8 = tail call i32 @av_aes_ctr_init(ptr noundef nonnull %6, ptr noundef %1) #5
  %.not21 = icmp eq i32 %8, 0
  br i1 %.not21, label %9, label %23

9:                                                ; preds = %7
  %.not22 = icmp eq i32 %4, 0
  br i1 %.not22, label %10, label %12

10:                                               ; preds = %9
  %11 = load ptr, ptr %0, align 8, !tbaa !24
  tail call void @av_aes_ctr_set_random_iv(ptr noundef %11) #5
  br label %12

12:                                               ; preds = %10, %9
  %13 = getelementptr inbounds nuw i8, ptr %0, i64 36
  store i32 %2, ptr %13, align 4, !tbaa !4
  %14 = icmp eq i32 %3, 225
  br i1 %14, label %15, label %23

15:                                               ; preds = %12
  %16 = getelementptr inbounds nuw i8, ptr %0, i64 88
  %17 = tail call i32 @ff_lavf_cbs_init(ptr noundef nonnull %16, i32 noundef 225, ptr noundef null) #5
  %18 = icmp slt i32 %17, 0
  br i1 %18, label %23, label %19

19:                                               ; preds = %15
  %20 = load ptr, ptr %16, align 8, !tbaa !34
  %21 = getelementptr inbounds nuw i8, ptr %20, i64 24
  store ptr @decompose_unit_types, ptr %21, align 8, !tbaa !89
  %22 = getelementptr inbounds nuw i8, ptr %20, i64 32
  store i32 5, ptr %22, align 8, !tbaa !90
  br label %23

23:                                               ; preds = %12, %19, %15, %7, %5
  %.0 = phi i32 [ -12, %5 ], [ %8, %7 ], [ %17, %15 ], [ 0, %19 ], [ 0, %12 ]
  ret i32 %.0
}